target datalayout = "e-m:e-p270:32:32-p271:32:32-p272:64:64-i64:64-i128:128-f80:128-n8:16:32:64-S128"
target triple = "x86_64-unknown-linux-gnu"

%class.aiVector3t = type { float, float, float }

; Function Attrs: mustprogress nounwind uwtable
define linkonce_odr hidden void @_ZN10aiVector3tIfEC2Efff(ptr noundef nonnull align 4 dereferenceable(12) %this, float noundef %_x, float noundef %_y, float noundef %_z) unnamed_addr #0 comdat align 2 {
entry:
  %this.addr = alloca ptr, align 8
  %_x.addr = alloca float, align 4
  %_y.addr = alloca float, align 4
  %_z.addr = alloca float, align 4
  store ptr %this, ptr %this.addr, align 8
  store float %_x, ptr %_x.addr, align 4
  store float %_y, ptr %_y.addr, align 4
  store float %_z, ptr %_z.addr, align 4
  %this1 = load ptr, ptr %this.addr, align 8
  %x = getelementptr inbounds %class.aiVector3t, ptr %this1, i32 0, i32 0
  %0 = load float, ptr %_x.addr, align 4
  store float %0, ptr %x, align 4
  %y = getelementptr inbounds %class.aiVector3t, ptr %this1, i32 0, i32 1
  %1 = load float, ptr %_y.addr, align 4
  store float %1, ptr %y, align 4
  %z = getelementptr inbounds %class.aiVector3t, ptr %this1, i32 0, i32 2
  %2 = load float, ptr %_z.addr, align 4
  store float %2, ptr %z, align 4
  ret void
}

; Function Attrs: mustprogress uwtable
define linkonce_odr hidden { <2 x float>, float } @_ZmiIfE10aiVector3tIT_ERKS2_S4_(ptr noundef nonnull align 4 dereferenceable(12) %v1, ptr noundef nonnull align 4 dereferenceable(12) %v2) #5 comdat {
entry:
  %retval = alloca %class.aiVector3t, align 4
  %v1.addr = alloca ptr, align 8
  %v2.addr = alloca ptr, align 8
  %retval.coerce = alloca { <2 x float>, float }, align 8
  store ptr %v1, ptr %v1.addr, align 8
  store ptr %v2, ptr %v2.addr, align 8
  %0 = load ptr, ptr %v1.addr, align 8
  %x = getelementptr inbounds %class.aiVector3t, ptr %0, i32 0, i32 0
  %1 = load float, ptr %x, align 4
  %2 = load ptr, ptr %v2.addr, align 8
  %x1 = getelementptr inbounds %class.aiVector3t, ptr %2, i32 0, i32 0
  %3 = load float, ptr %x1, align 4
  %sub = fsub float %1, %3
  %4 = load ptr, ptr %v1.addr, align 8
  %y = getelementptr inbounds %class.aiVector3t, ptr %4, i32 0, i32 1
  %5 = load float, ptr %y, align 4
  %6 = load ptr, ptr %v2.addr, align 8
  %y2 = getelementptr inbounds %class.aiVector3t, ptr %6, i32 0, i32 1
  %7 = load float, ptr %y2, align 4
  %sub3 = fsub float %5, %7
  %8 = load ptr, ptr %v1.addr, align 8
  %z = getelementptr inbounds %class.aiVector3t, ptr %8, i32 0, i32 2
  %9 = load float, ptr %z, align 4
  %10 = load ptr, ptr %v2.addr, align 8
  %z4 = getelementptr inbounds %class.aiVector3t, ptr %10, i32 0, i32 2
  %11 = load float, ptr %z4, align 4
  %sub5 = fsub float %9, %11
  call void @_ZN10aiVector3tIfEC2Efff(ptr noundef nonnull align 4 dereferenceable(12) %retval, float noundef %sub, float noundef %sub3, float noundef %sub5)
  call void @llvm.memcpy.p0.p0.i64(ptr align 8 %retval.coerce, ptr align 4 %retval, i64 12, i1 false)
  %12 = load { <2 x float>, float }, ptr %retval.coerce, align 8
  ret { <2 x float>, float } %12
}

; Function Attrs: mustprogress uwtable
define void @aiVector3Subtract(ptr noundef %dst, ptr noundef %src) #12 {
entry:
  %dst.addr = alloca ptr, align 8
  %src.addr = alloca ptr, align 8
  %ref.tmp = alloca %class.aiVector3t, align 4
  %tmp.coerce = alloca { <2 x float>, float }, align 8
  store ptr %dst, ptr %dst.addr, align 8
  store ptr %src, ptr %src.addr, align 8
  %0 = load ptr, ptr %dst.addr, align 8
  %1 = load ptr, ptr %src.addr, align 8
  %call = call { <2 x float>, float } @_ZmiIfE10aiVector3tIT_ERKS2_S4_(ptr noundef nonnull align 4 dereferenceable(12) %0, ptr noundef nonnull align 4 dereferenceable(12) %1)
  store { <2 x float>, float } %call, ptr %tmp.coerce, align 8
  call void @llvm.memcpy.p0.p0.i64(ptr align 4 %ref.tmp, ptr align 8 %tmp.coerce, i64 12, i1 false)
  %2 = load ptr, ptr %dst.addr, align 8
  call void @llvm.memcpy.p0.p0.i64(ptr align 4 %2, ptr align 4 %ref.tmp, i64 12, i1 false)
  ret void
}