; Function Attrs: mustprogress nofree norecurse nosync nounwind willreturn memory(argmem: readwrite) uwtable
define void @aiVector3Subtract(ptr nocapture noundef %dst, ptr nocapture noundef readonly %src) local_unnamed_addr #12 {
entry:
  %0 = load <2 x float>, ptr %dst, align 4
  %1 = load <2 x float>, ptr %src, align 4
  %2 = fsub <2 x float> %0, %1
  %z.i = getelementptr inbounds i8, ptr %dst, i64 8
  %3 = load float, ptr %z.i, align 4
  %z4.i = getelementptr inbounds i8, ptr %src, i64 8
  %4 = load float, ptr %z4.i, align 4
  %sub5.i = fsub float %3, %4
  store <2 x float> %2, ptr %dst, align 4
  store float %sub5.i, ptr %z.i, align 4
  ret void
}